target datalayout = "e-m:e-p270:32:32-p271:32:32-p272:64:64-i64:64-i128:128-f80:128-n8:16:32:64-S128"
target triple = "x86_64-pc-linux-gnu"

%"class.std::_Function_base" = type { %"union.std::_Any_data", ptr }
%"union.std::_Any_data" = type { %"union.std::_Nocopy_types" }
%"union.std::_Nocopy_types" = type { { i64, i64 } }
%"class.gmx::EnergyData" = type { %"class.std::unique_ptr", %"class.std::unique_ptr.41", %class.ekinstate_t, i8, [3 x [3 x float]], [3 x [3 x float]], [3 x [3 x float]], [3 x [3 x float]], [3 x float], i64, i64, i64, i64, i8, i8, i32, ptr, ptr, %"class.std::vector.52", %"class.std::function.57", ptr, ptr, ptr, ptr, ptr, ptr, ptr, ptr, ptr, ptr, ptr, i8, ptr }
%"class.std::unique_ptr" = type { %"struct.std::__uniq_ptr_data" }
%"struct.std::__uniq_ptr_data" = type { %"class.std::__uniq_ptr_impl" }
%"class.std::__uniq_ptr_impl" = type { %"class.std::tuple" }
%"class.std::tuple" = type { %"struct.std::_Tuple_impl" }
%"struct.std::_Tuple_impl" = type { %"struct.std::_Head_base.40" }
%"struct.std::_Head_base.40" = type { ptr }
%"class.std::unique_ptr.41" = type { %"struct.std::__uniq_ptr_data.42" }
%"struct.std::__uniq_ptr_data.42" = type { %"class.std::__uniq_ptr_impl.43" }
%"class.std::__uniq_ptr_impl.43" = type { %"class.std::tuple.44" }
%"class.std::tuple.44" = type { %"struct.std::_Tuple_impl.45" }
%"struct.std::_Tuple_impl.45" = type { %"struct.std::_Head_base.48" }
%"struct.std::_Head_base.48" = type { ptr }
%class.ekinstate_t = type <{ i8, [3 x i8], i32, ptr, ptr, ptr, [3 x [3 x float]], [4 x i8], %"class.std::vector", %"class.std::vector", %"class.std::vector", float, float, i8, [7 x i8] }>
%"class.std::vector" = type { %"struct.std::_Vector_base" }
%"struct.std::_Vector_base" = type { %"struct.std::_Vector_base<double, std::allocator<double>>::_Vector_impl" }
%"struct.std::_Vector_base<double, std::allocator<double>>::_Vector_impl" = type { %"struct.std::_Vector_base<double, std::allocator<double>>::_Vector_impl_data" }
%"struct.std::_Vector_base<double, std::allocator<double>>::_Vector_impl_data" = type { ptr, ptr, ptr }
%"class.std::vector.52" = type { %"struct.std::_Vector_base.53" }
%"struct.std::_Vector_base.53" = type { %"struct.std::_Vector_base<std::function<float (long, double)>, std::allocator<std::function<float (long, double)>>>::_Vector_impl" }
%"struct.std::_Vector_base<std::function<float (long, double)>, std::allocator<std::function<float (long, double)>>>::_Vector_impl" = type { %"struct.std::_Vector_base<std::function<float (long, double)>, std::allocator<std::function<float (long, double)>>>::_Vector_impl_data" }
%"struct.std::_Vector_base<std::function<float (long, double)>, std::allocator<std::function<float (long, double)>>>::_Vector_impl_data" = type { ptr, ptr, ptr }
%"class.std::function.57" = type { %"class.std::_Function_base", ptr }

; Function Attrs: inlinehint mustprogress nounwind uwtable
define internal void @_ZL5m_addPA3_KfS1_PA3_f(ptr noundef %0, ptr noundef %1, ptr noundef %2) #2 {
  %4 = alloca ptr, align 8
  %5 = alloca ptr, align 8
  %6 = alloca ptr, align 8
  store ptr %0, ptr %4, align 8, !tbaa !178
  store ptr %1, ptr %5, align 8, !tbaa !178
  store ptr %2, ptr %6, align 8, !tbaa !178
  %7 = load ptr, ptr %4, align 8, !tbaa !178
  %8 = getelementptr inbounds [3 x float], ptr %7, i64 0
  %9 = getelementptr inbounds [3 x float], ptr %8, i64 0, i64 0
  %10 = load float, ptr %9, align 4, !tbaa !179
  %11 = load ptr, ptr %5, align 8, !tbaa !178
  %12 = getelementptr inbounds [3 x float], ptr %11, i64 0
  %13 = getelementptr inbounds [3 x float], ptr %12, i64 0, i64 0
  %14 = load float, ptr %13, align 4, !tbaa !179
  %15 = fadd float %10, %14
  %16 = load ptr, ptr %6, align 8, !tbaa !178
  %17 = getelementptr inbounds [3 x float], ptr %16, i64 0
  %18 = getelementptr inbounds [3 x float], ptr %17, i64 0, i64 0
  store float %15, ptr %18, align 4, !tbaa !179
  %19 = load ptr, ptr %4, align 8, !tbaa !178
  %20 = getelementptr inbounds [3 x float], ptr %19, i64 0
  %21 = getelementptr inbounds [3 x float], ptr %20, i64 0, i64 1
  %22 = load float, ptr %21, align 4, !tbaa !179
  %23 = load ptr, ptr %5, align 8, !tbaa !178
  %24 = getelementptr inbounds [3 x float], ptr %23, i64 0
  %25 = getelementptr inbounds [3 x float], ptr %24, i64 0, i64 1
  %26 = load float, ptr %25, align 4, !tbaa !179
  %27 = fadd float %22, %26
  %28 = load ptr, ptr %6, align 8, !tbaa !178
  %29 = getelementptr inbounds [3 x float], ptr %28, i64 0
  %30 = getelementptr inbounds [3 x float], ptr %29, i64 0, i64 1
  store float %27, ptr %30, align 4, !tbaa !179
  %31 = load ptr, ptr %4, align 8, !tbaa !178
  %32 = getelementptr inbounds [3 x float], ptr %31, i64 0
  %33 = getelementptr inbounds [3 x float], ptr %32, i64 0, i64 2
  %34 = load float, ptr %33, align 4, !tbaa !179
  %35 = load ptr, ptr %5, align 8, !tbaa !178
  %36 = getelementptr inbounds [3 x float], ptr %35, i64 0
  %37 = getelementptr inbounds [3 x float], ptr %36, i64 0, i64 2
  %38 = load float, ptr %37, align 4, !tbaa !179
  %39 = fadd float %34, %38
  %40 = load ptr, ptr %6, align 8, !tbaa !178
  %41 = getelementptr inbounds [3 x float], ptr %40, i64 0
  %42 = getelementptr inbounds [3 x float], ptr %41, i64 0, i64 2
  store float %39, ptr %42, align 4, !tbaa !179
  %43 = load ptr, ptr %4, align 8, !tbaa !178
  %44 = getelementptr inbounds [3 x float], ptr %43, i64 1
  %45 = getelementptr inbounds [3 x float], ptr %44, i64 0, i64 0
  %46 = load float, ptr %45, align 4, !tbaa !179
  %47 = load ptr, ptr %5, align 8, !tbaa !178
  %48 = getelementptr inbounds [3 x float], ptr %47, i64 1
  %49 = getelementptr inbounds [3 x float], ptr %48, i64 0, i64 0
  %50 = load float, ptr %49, align 4, !tbaa !179
  %51 = fadd float %46, %50
  %52 = load ptr, ptr %6, align 8, !tbaa !178
  %53 = getelementptr inbounds [3 x float], ptr %52, i64 1
  %54 = getelementptr inbounds [3 x float], ptr %53, i64 0, i64 0
  store float %51, ptr %54, align 4, !tbaa !179
  %55 = load ptr, ptr %4, align 8, !tbaa !178
  %56 = getelementptr inbounds [3 x float], ptr %55, i64 1
  %57 = getelementptr inbounds [3 x float], ptr %56, i64 0, i64 1
  %58 = load float, ptr %57, align 4, !tbaa !179
  %59 = load ptr, ptr %5, align 8, !tbaa !178
  %60 = getelementptr inbounds [3 x float], ptr %59, i64 1
  %61 = getelementptr inbounds [3 x float], ptr %60, i64 0, i64 1
  %62 = load float, ptr %61, align 4, !tbaa !179
  %63 = fadd float %58, %62
  %64 = load ptr, ptr %6, align 8, !tbaa !178
  %65 = getelementptr inbounds [3 x float], ptr %64, i64 1
  %66 = getelementptr inbounds [3 x float], ptr %65, i64 0, i64 1
  store float %63, ptr %66, align 4, !tbaa !179
  %67 = load ptr, ptr %4, align 8, !tbaa !178
  %68 = getelementptr inbounds [3 x float], ptr %67, i64 1
  %69 = getelementptr inbounds [3 x float], ptr %68, i64 0, i64 2
  %70 = load float, ptr %69, align 4, !tbaa !179
  %71 = load ptr, ptr %5, align 8, !tbaa !178
  %72 = getelementptr inbounds [3 x float], ptr %71, i64 1
  %73 = getelementptr inbounds [3 x float], ptr %72, i64 0, i64 2
  %74 = load float, ptr %73, align 4, !tbaa !179
  %75 = fadd float %70, %74
  %76 = load ptr, ptr %6, align 8, !tbaa !178
  %77 = getelementptr inbounds [3 x float], ptr %76, i64 1
  %78 = getelementptr inbounds [3 x float], ptr %77, i64 0, i64 2
  store float %75, ptr %78, align 4, !tbaa !179
  %79 = load ptr, ptr %4, align 8, !tbaa !178
  %80 = getelementptr inbounds [3 x float], ptr %79, i64 2
  %81 = getelementptr inbounds [3 x float], ptr %80, i64 0, i64 0
  %82 = load float, ptr %81, align 4, !tbaa !179
  %83 = load ptr, ptr %5, align 8, !tbaa !178
  %84 = getelementptr inbounds [3 x float], ptr %83, i64 2
  %85 = getelementptr inbounds [3 x float], ptr %84, i64 0, i64 0
  %86 = load float, ptr %85, align 4, !tbaa !179
  %87 = fadd float %82, %86
  %88 = load ptr, ptr %6, align 8, !tbaa !178
  %89 = getelementptr inbounds [3 x float], ptr %88, i64 2
  %90 = getelementptr inbounds [3 x float], ptr %89, i64 0, i64 0
  store float %87, ptr %90, align 4, !tbaa !179
  %91 = load ptr, ptr %4, align 8, !tbaa !178
  %92 = getelementptr inbounds [3 x float], ptr %91, i64 2
  %93 = getelementptr inbounds [3 x float], ptr %92, i64 0, i64 1
  %94 = load float, ptr %93, align 4, !tbaa !179
  %95 = load ptr, ptr %5, align 8, !tbaa !178
  %96 = getelementptr inbounds [3 x float], ptr %95, i64 2
  %97 = getelementptr inbounds [3 x float], ptr %96, i64 0, i64 1
  %98 = load float, ptr %97, align 4, !tbaa !179
  %99 = fadd float %94, %98
  %100 = load ptr, ptr %6, align 8, !tbaa !178
  %101 = getelementptr inbounds [3 x float], ptr %100, i64 2
  %102 = getelementptr inbounds [3 x float], ptr %101, i64 0, i64 1
  store float %99, ptr %102, align 4, !tbaa !179
  %103 = load ptr, ptr %4, align 8, !tbaa !178
  %104 = getelementptr inbounds [3 x float], ptr %103, i64 2
  %105 = getelementptr inbounds [3 x float], ptr %104, i64 0, i64 2
  %106 = load float, ptr %105, align 4, !tbaa !179
  %107 = load ptr, ptr %5, align 8, !tbaa !178
  %108 = getelementptr inbounds [3 x float], ptr %107, i64 2
  %109 = getelementptr inbounds [3 x float], ptr %108, i64 0, i64 2
  %110 = load float, ptr %109, align 4, !tbaa !179
  %111 = fadd float %106, %110
  %112 = load ptr, ptr %6, align 8, !tbaa !178
  %113 = getelementptr inbounds [3 x float], ptr %112, i64 2
  %114 = getelementptr inbounds [3 x float], ptr %113, i64 0, i64 2
  store float %111, ptr %114, align 4, !tbaa !179
  ret void
}

; Function Attrs: inlinehint mustprogress nounwind uwtable
define internal void @_ZL9clear_matPA3_f(ptr noundef %0) #2 {
  %2 = alloca ptr, align 8
  %3 = alloca float, align 4
  store ptr %0, ptr %2, align 8, !tbaa !178
  call void @llvm.lifetime.start.p0(i64 4, ptr %3) #22
  store float 0.000000e+00, ptr %3, align 4, !tbaa !179
  %4 = load ptr, ptr %2, align 8, !tbaa !178
  %5 = getelementptr inbounds [3 x float], ptr %4, i64 0
  %6 = getelementptr inbounds [3 x float], ptr %5, i64 0, i64 2
  store float 0.000000e+00, ptr %6, align 4, !tbaa !179
  %7 = load ptr, ptr %2, align 8, !tbaa !178
  %8 = getelementptr inbounds [3 x float], ptr %7, i64 0
  %9 = getelementptr inbounds [3 x float], ptr %8, i64 0, i64 1
  store float 0.000000e+00, ptr %9, align 4, !tbaa !179
  %10 = load ptr, ptr %2, align 8, !tbaa !178
  %11 = getelementptr inbounds [3 x float], ptr %10, i64 0
  %12 = getelementptr inbounds [3 x float], ptr %11, i64 0, i64 0
  store float 0.000000e+00, ptr %12, align 4, !tbaa !179
  %13 = load ptr, ptr %2, align 8, !tbaa !178
  %14 = getelementptr inbounds [3 x float], ptr %13, i64 1
  %15 = getelementptr inbounds [3 x float], ptr %14, i64 0, i64 2
  store float 0.000000e+00, ptr %15, align 4, !tbaa !179
  %16 = load ptr, ptr %2, align 8, !tbaa !178
  %17 = getelementptr inbounds [3 x float], ptr %16, i64 1
  %18 = getelementptr inbounds [3 x float], ptr %17, i64 0, i64 1
  store float 0.000000e+00, ptr %18, align 4, !tbaa !179
  %19 = load ptr, ptr %2, align 8, !tbaa !178
  %20 = getelementptr inbounds [3 x float], ptr %19, i64 1
  %21 = getelementptr inbounds [3 x float], ptr %20, i64 0, i64 0
  store float 0.000000e+00, ptr %21, align 4, !tbaa !179
  %22 = load ptr, ptr %2, align 8, !tbaa !178
  %23 = getelementptr inbounds [3 x float], ptr %22, i64 2
  %24 = getelementptr inbounds [3 x float], ptr %23, i64 0, i64 2
  store float 0.000000e+00, ptr %24, align 4, !tbaa !179
  %25 = load ptr, ptr %2, align 8, !tbaa !178
  %26 = getelementptr inbounds [3 x float], ptr %25, i64 2
  %27 = getelementptr inbounds [3 x float], ptr %26, i64 0, i64 1
  store float 0.000000e+00, ptr %27, align 4, !tbaa !179
  %28 = load ptr, ptr %2, align 8, !tbaa !178
  %29 = getelementptr inbounds [3 x float], ptr %28, i64 2
  %30 = getelementptr inbounds [3 x float], ptr %29, i64 0, i64 0
  store float 0.000000e+00, ptr %30, align 4, !tbaa !179
  call void @llvm.lifetime.end.p0(i64 4, ptr %3) #22
  ret void
}

; Function Attrs: mustprogress nounwind uwtable
define void @_ZN3gmx10EnergyData21addToConstraintVirialEPA3_Kfl(ptr noundef nonnull align 8 dereferenceable(552) %0, ptr noundef %1, i64 noundef %2) #1 align 2 {
  %4 = alloca ptr, align 8
  %5 = alloca ptr, align 8
  %6 = alloca i64, align 8
  store ptr %0, ptr %4, align 8, !tbaa !129
  store ptr %1, ptr %5, align 8, !tbaa !178
  store i64 %2, ptr %6, align 8, !tbaa !9
  %7 = load ptr, ptr %4, align 8
  %8 = load i64, ptr %6, align 8, !tbaa !9
  %9 = getelementptr inbounds nuw %"class.gmx::EnergyData", ptr %7, i32 0, i32 10
  %10 = load i64, ptr %9, align 8, !tbaa !146
  %11 = icmp sgt i64 %8, %10
  br i1 %11, label %12, label %17

12:                                               ; preds = %3
  %13 = load i64, ptr %6, align 8, !tbaa !9
  %14 = getelementptr inbounds nuw %"class.gmx::EnergyData", ptr %7, i32 0, i32 10
  store i64 %13, ptr %14, align 8, !tbaa !146
  %15 = getelementptr inbounds nuw %"class.gmx::EnergyData", ptr %7, i32 0, i32 5
  %16 = getelementptr inbounds [3 x [3 x float]], ptr %15, i64 0, i64 0
  call void @_ZL9clear_matPA3_f(ptr noundef %16)
  br label %17

17:                                               ; preds = %12, %3
  %18 = getelementptr inbounds nuw %"class.gmx::EnergyData", ptr %7, i32 0, i32 5
  %19 = getelementptr inbounds [3 x [3 x float]], ptr %18, i64 0, i64 0
  %20 = load ptr, ptr %5, align 8, !tbaa !178
  %21 = getelementptr inbounds nuw %"class.gmx::EnergyData", ptr %7, i32 0, i32 5
  %22 = getelementptr inbounds [3 x [3 x float]], ptr %21, i64 0, i64 0
  call void @_ZL5m_addPA3_KfS1_PA3_f(ptr noundef %19, ptr noundef %20, ptr noundef %22)
  ret void
}