; Function Attrs: mustprogress nofree norecurse nosync nounwind willreturn memory(argmem: readwrite) uwtable
define void @_ZN3gmx10EnergyData21addToConstraintVirialEPA3_Kfl(ptr noundef nonnull align 8 captures(none) dereferenceable(552) %0, ptr noundef readonly captures(none) %1, i64 noundef %2) local_unnamed_addr #4 align 2 {
  %4 = getelementptr inbounds nuw i8, ptr %0, i64 344
  %5 = load i64, ptr %4, align 8, !tbaa !398
  %6 = icmp sgt i64 %2, %5
  br i1 %6, label %7, label %._crit_edge

._crit_edge:                                      ; preds = %3
  %.phi.trans.insert = getelementptr inbounds nuw i8, ptr %0, i64 216
  %.pre = load float, ptr %.phi.trans.insert, align 8, !tbaa !186
  %.phi.trans.insert3 = getelementptr inbounds nuw i8, ptr %0, i64 220
  %.pre4 = load float, ptr %.phi.trans.insert3, align 4, !tbaa !186
  %.phi.trans.insert5 = getelementptr inbounds nuw i8, ptr %0, i64 224
  %.pre6 = load float, ptr %.phi.trans.insert5, align 8, !tbaa !186
  %.phi.trans.insert7 = getelementptr inbounds nuw i8, ptr %0, i64 228
  %.pre8 = load float, ptr %.phi.trans.insert7, align 4, !tbaa !186
  %.phi.trans.insert9 = getelementptr inbounds nuw i8, ptr %0, i64 232
  %.pre10 = load float, ptr %.phi.trans.insert9, align 8, !tbaa !186
  %.phi.trans.insert11 = getelementptr inbounds nuw i8, ptr %0, i64 236
  %.pre12 = load float, ptr %.phi.trans.insert11, align 4, !tbaa !186
  %.phi.trans.insert13 = getelementptr inbounds nuw i8, ptr %0, i64 240
  %.pre14 = load float, ptr %.phi.trans.insert13, align 8, !tbaa !186
  %.phi.trans.insert15 = getelementptr inbounds nuw i8, ptr %0, i64 244
  %.pre16 = load float, ptr %.phi.trans.insert15, align 4, !tbaa !186
  %.phi.trans.insert17 = getelementptr inbounds nuw i8, ptr %0, i64 248
  %.pre18 = load float, ptr %.phi.trans.insert17, align 8, !tbaa !186
  br label %9

7:                                                ; preds = %3
  store i64 %2, ptr %4, align 8, !tbaa !398
  %8 = getelementptr inbounds nuw i8, ptr %0, i64 216
  tail call void @llvm.memset.p0.i64(ptr noundef nonnull align 8 dereferenceable(36) %8, i8 0, i64 36, i1 false)
  br label %9

9:                                                ; preds = %._crit_edge, %7
  %10 = phi float [ %.pre18, %._crit_edge ], [ 0.000000e+00, %7 ]
  %11 = phi float [ %.pre16, %._crit_edge ], [ 0.000000e+00, %7 ]
  %12 = phi float [ %.pre14, %._crit_edge ], [ 0.000000e+00, %7 ]
  %13 = phi float [ %.pre12, %._crit_edge ], [ 0.000000e+00, %7 ]
  %14 = phi float [ %.pre10, %._crit_edge ], [ 0.000000e+00, %7 ]
  %15 = phi float [ %.pre8, %._crit_edge ], [ 0.000000e+00, %7 ]
  %16 = phi float [ %.pre6, %._crit_edge ], [ 0.000000e+00, %7 ]
  %17 = phi float [ %.pre4, %._crit_edge ], [ 0.000000e+00, %7 ]
  %18 = phi float [ %.pre, %._crit_edge ], [ 0.000000e+00, %7 ]
  %19 = getelementptr inbounds nuw i8, ptr %0, i64 216
  %20 = load float, ptr %1, align 4, !tbaa !186
  %21 = fadd float %18, %20
  store float %21, ptr %19, align 8, !tbaa !186
  %22 = getelementptr inbounds nuw i8, ptr %0, i64 220
  %23 = getelementptr inbounds nuw i8, ptr %1, i64 4
  %24 = load float, ptr %23, align 4, !tbaa !186
  %25 = fadd float %17, %24
  store float %25, ptr %22, align 4, !tbaa !186
  %26 = getelementptr inbounds nuw i8, ptr %0, i64 224
  %27 = getelementptr inbounds nuw i8, ptr %1, i64 8
  %28 = load float, ptr %27, align 4, !tbaa !186
  %29 = fadd float %16, %28
  store float %29, ptr %26, align 8, !tbaa !186
  %30 = getelementptr inbounds nuw i8, ptr %0, i64 228
  %31 = getelementptr inbounds nuw i8, ptr %1, i64 12
  %32 = load float, ptr %31, align 4, !tbaa !186
  %33 = fadd float %15, %32
  store float %33, ptr %30, align 4, !tbaa !186
  %34 = getelementptr inbounds nuw i8, ptr %0, i64 232
  %35 = getelementptr inbounds nuw i8, ptr %1, i64 16
  %36 = load float, ptr %35, align 4, !tbaa !186
  %37 = fadd float %14, %36
  store float %37, ptr %34, align 8, !tbaa !186
  %38 = getelementptr inbounds nuw i8, ptr %0, i64 236
  %39 = getelementptr inbounds nuw i8, ptr %1, i64 20
  %40 = load float, ptr %39, align 4, !tbaa !186
  %41 = fadd float %13, %40
  store float %41, ptr %38, align 4, !tbaa !186
  %42 = getelementptr inbounds nuw i8, ptr %0, i64 240
  %43 = getelementptr inbounds nuw i8, ptr %1, i64 24
  %44 = load float, ptr %43, align 4, !tbaa !186
  %45 = fadd float %12, %44
  store float %45, ptr %42, align 8, !tbaa !186
  %46 = getelementptr inbounds nuw i8, ptr %0, i64 244
  %47 = getelementptr inbounds nuw i8, ptr %1, i64 28
  %48 = load float, ptr %47, align 4, !tbaa !186
  %49 = fadd float %11, %48
  store float %49, ptr %46, align 4, !tbaa !186
  %50 = getelementptr inbounds nuw i8, ptr %0, i64 248
  %51 = getelementptr inbounds nuw i8, ptr %1, i64 32
  %52 = load float, ptr %51, align 4, !tbaa !186
  %53 = fadd float %10, %52
  store float %53, ptr %50, align 8, !tbaa !186
  ret void
}